target datalayout = "e-m:e-p270:32:32-p271:32:32-p272:64:64-i64:64-i128:128-f80:128-n8:16:32:64-S128"
target triple = "x86_64-pc-linux-gnu"

%struct.TCGContext = type { ptr, ptr, ptr, ptr, ptr, i32, i32, i32, i32, i32, i32, i32, i8, i8, i8, i32, i32, i64, i64, i64, ptr, ptr, ptr, ptr, ptr, i64, ptr, ptr, ptr, ptr, %struct.anon, ptr, ptr, ptr, ptr, ptr, [6 x ptr], [6 x %struct.TCGTempSet], [512 x %struct.TCGTemp], %union.anon, %union.anon, %struct.anon.0, ptr, [32 x ptr], [512 x i16], ptr, [1 x %struct.__jmp_buf_tag] }
%struct.anon = type { ptr, ptr }
%struct.TCGTempSet = type { [8 x i64] }
%struct.TCGTemp = type { i64, i64, ptr, i64, ptr, i64, ptr }
%union.anon = type { %struct.QTailQLink }
%struct.QTailQLink = type { ptr, ptr }
%struct.anon.0 = type { ptr, ptr }
%struct.__jmp_buf_tag = type { [8 x i64], i32, %struct.__sigset_t }
%struct.__sigset_t = type { [16 x i64] }

@tcg_ctx = external thread_local global ptr, align 8

; Function Attrs: inlinehint nounwind sspstrong uwtable
define internal i64 @temp_idx(ptr noundef %0) #5 {
  %2 = alloca ptr, align 8
  store ptr %0, ptr %2, align 8
  %3 = load ptr, ptr %2, align 8
  %4 = call align 8 ptr @llvm.threadlocal.address.p0(ptr align 8 @tcg_ctx)
  %5 = load ptr, ptr %4, align 8
  %6 = getelementptr inbounds nuw %struct.TCGContext, ptr %5, i32 0, i32 38
  %7 = getelementptr inbounds [512 x %struct.TCGTemp], ptr %6, i64 0, i64 0
  %8 = ptrtoint ptr %3 to i64
  %9 = ptrtoint ptr %7 to i64
  %10 = sub i64 %8, %9
  %11 = sdiv exact i64 %10, 56
  ret i64 %11
}

; Function Attrs: inlinehint nounwind sspstrong uwtable
define internal ptr @temp_tcgv_i32(ptr noundef %0) #5 {
  %2 = alloca ptr, align 8
  store ptr %0, ptr %2, align 8
  %3 = load ptr, ptr %2, align 8
  %4 = call i64 @temp_idx(ptr noundef %3)
  %5 = load ptr, ptr %2, align 8
  %6 = call align 8 ptr @llvm.threadlocal.address.p0(ptr align 8 @tcg_ctx)
  %7 = load ptr, ptr %6, align 8
  %8 = ptrtoint ptr %5 to i64
  %9 = ptrtoint ptr %7 to i64
  %10 = sub i64 %8, %9
  %11 = inttoptr i64 %10 to ptr
  ret ptr %11
}

; Function Attrs: inlinehint nounwind sspstrong uwtable
define internal ptr @tcgv_i32_temp(ptr noundef %0) #5 {
  %2 = alloca ptr, align 8
  store ptr %0, ptr %2, align 8
  %3 = call align 8 ptr @llvm.threadlocal.address.p0(ptr align 8 @tcg_ctx)
  %4 = load ptr, ptr %3, align 8
  %5 = load ptr, ptr %2, align 8
  %6 = ptrtoint ptr %5 to i64
  %7 = getelementptr inbounds nuw i8, ptr %4, i64 %6
  ret ptr %7
}

; Function Attrs: inlinehint nounwind sspstrong uwtable
define internal ptr @temp_tcgv_i64(ptr noundef %0) #5 {
  %2 = alloca ptr, align 8
  store ptr %0, ptr %2, align 8
  %3 = load ptr, ptr %2, align 8
  %4 = call ptr @temp_tcgv_i32(ptr noundef %3)
  ret ptr %4
}

; Function Attrs: inlinehint nounwind sspstrong uwtable
define internal ptr @tcgv_i128_temp(ptr noundef %0) #5 {
  %2 = alloca ptr, align 8
  store ptr %0, ptr %2, align 8
  %3 = load ptr, ptr %2, align 8
  %4 = call ptr @tcgv_i32_temp(ptr noundef %3)
  ret ptr %4
}

; Function Attrs: inlinehint nounwind sspstrong uwtable
define internal ptr @TCGV128_HIGH(ptr noundef %0) #5 {
  %2 = alloca ptr, align 8
  %3 = alloca i32, align 4
  store ptr %0, ptr %2, align 8
  call void @llvm.lifetime.start.p0(i64 4, ptr %3) #7
  store i32 1, ptr %3, align 4
  %4 = load ptr, ptr %2, align 8
  %5 = call ptr @tcgv_i128_temp(ptr noundef %4)
  %6 = load i32, ptr %3, align 4
  %7 = sext i32 %6 to i64
  %8 = getelementptr inbounds %struct.TCGTemp, ptr %5, i64 %7
  %9 = call ptr @temp_tcgv_i64(ptr noundef %8)
  call void @llvm.lifetime.end.p0(i64 4, ptr %3) #7
  ret ptr %9
}

; Function Attrs: inlinehint nounwind sspstrong uwtable
define internal ptr @TCGV128_LOW(ptr noundef %0) #5 {
  %2 = alloca ptr, align 8
  %3 = alloca i32, align 4
  store ptr %0, ptr %2, align 8
  call void @llvm.lifetime.start.p0(i64 4, ptr %3) #7
  store i32 0, ptr %3, align 4
  %4 = load ptr, ptr %2, align 8
  %5 = call ptr @tcgv_i128_temp(ptr noundef %4)
  %6 = load i32, ptr %3, align 4
  %7 = sext i32 %6 to i64
  %8 = getelementptr inbounds %struct.TCGTemp, ptr %5, i64 %7
  %9 = call ptr @temp_tcgv_i64(ptr noundef %8)
  call void @llvm.lifetime.end.p0(i64 4, ptr %3) #7
  ret ptr %9
}

; Function Attrs: nounwind sspstrong uwtable
define internal void @tcg_gen_nonatomic_cmpxchg_i128_int(ptr noundef %0, ptr noundef %1, ptr noundef %2, ptr noundef %3, i64 noundef %4, i32 noundef %5) #0 {
  %7 = alloca ptr, align 8
  %8 = alloca ptr, align 8
  %9 = alloca ptr, align 8
  %10 = alloca ptr, align 8
  %11 = alloca i64, align 8
  %12 = alloca i32, align 4
  %13 = alloca ptr, align 8
  %14 = alloca ptr, align 8
  %15 = alloca ptr, align 8
  %16 = alloca ptr, align 8
  %17 = alloca ptr, align 8
  store ptr %0, ptr %7, align 8
  store ptr %1, ptr %8, align 8
  store ptr %2, ptr %9, align 8
  store ptr %3, ptr %10, align 8
  store i64 %4, ptr %11, align 8
  store i32 %5, ptr %12, align 4
  call void @llvm.lifetime.start.p0(i64 8, ptr %13) #7
  %18 = call ptr @tcg_temp_ebb_new_i128()
  store ptr %18, ptr %13, align 8
  call void @llvm.lifetime.start.p0(i64 8, ptr %14) #7
  %19 = call ptr @tcg_temp_ebb_new_i128()
  store ptr %19, ptr %14, align 8
  call void @llvm.lifetime.start.p0(i64 8, ptr %15) #7
  %20 = call ptr @tcg_temp_ebb_new_i64()
  store ptr %20, ptr %15, align 8
  call void @llvm.lifetime.start.p0(i64 8, ptr %16) #7
  %21 = call ptr @tcg_temp_ebb_new_i64()
  store ptr %21, ptr %16, align 8
  call void @llvm.lifetime.start.p0(i64 8, ptr %17) #7
  %22 = call ptr @tcg_constant_i64(i64 noundef 0)
  store ptr %22, ptr %17, align 8
  %23 = load ptr, ptr %13, align 8
  %24 = load ptr, ptr %8, align 8
  %25 = load i64, ptr %11, align 8
  %26 = load i32, ptr %12, align 4
  call void @tcg_gen_qemu_ld_i128_int(ptr noundef %23, ptr noundef %24, i64 noundef %25, i32 noundef %26)
  %27 = load ptr, ptr %15, align 8
  %28 = load ptr, ptr %13, align 8
  %29 = call ptr @TCGV128_LOW(ptr noundef %28)
  %30 = load ptr, ptr %9, align 8
  %31 = call ptr @TCGV128_LOW(ptr noundef %30)
  call void @tcg_gen_xor_i64(ptr noundef %27, ptr noundef %29, ptr noundef %31)
  %32 = load ptr, ptr %16, align 8
  %33 = load ptr, ptr %13, align 8
  %34 = call ptr @TCGV128_HIGH(ptr noundef %33)
  %35 = load ptr, ptr %9, align 8
  %36 = call ptr @TCGV128_HIGH(ptr noundef %35)
  call void @tcg_gen_xor_i64(ptr noundef %32, ptr noundef %34, ptr noundef %36)
  %37 = load ptr, ptr %15, align 8
  %38 = load ptr, ptr %15, align 8
  %39 = load ptr, ptr %16, align 8
  call void @tcg_gen_or_i64(ptr noundef %37, ptr noundef %38, ptr noundef %39)
  %40 = load ptr, ptr %14, align 8
  %41 = call ptr @TCGV128_LOW(ptr noundef %40)
  %42 = load ptr, ptr %15, align 8
  %43 = load ptr, ptr %17, align 8
  %44 = load ptr, ptr %10, align 8
  %45 = call ptr @TCGV128_LOW(ptr noundef %44)
  %46 = load ptr, ptr %13, align 8
  %47 = call ptr @TCGV128_LOW(ptr noundef %46)
  call void @tcg_gen_movcond_i64(i32 noundef 8, ptr noundef %41, ptr noundef %42, ptr noundef %43, ptr noundef %45, ptr noundef %47)
  %48 = load ptr, ptr %14, align 8
  %49 = call ptr @TCGV128_HIGH(ptr noundef %48)
  %50 = load ptr, ptr %15, align 8
  %51 = load ptr, ptr %17, align 8
  %52 = load ptr, ptr %10, align 8
  %53 = call ptr @TCGV128_HIGH(ptr noundef %52)
  %54 = load ptr, ptr %13, align 8
  %55 = call ptr @TCGV128_HIGH(ptr noundef %54)
  call void @tcg_gen_movcond_i64(i32 noundef 8, ptr noundef %49, ptr noundef %50, ptr noundef %51, ptr noundef %53, ptr noundef %55)
  %56 = load ptr, ptr %14, align 8
  %57 = load ptr, ptr %8, align 8
  %58 = load i64, ptr %11, align 8
  %59 = load i32, ptr %12, align 4
  call void @tcg_gen_qemu_st_i128_int(ptr noundef %56, ptr noundef %57, i64 noundef %58, i32 noundef %59)
  %60 = load ptr, ptr %7, align 8
  %61 = load ptr, ptr %13, align 8
  call void @tcg_gen_mov_i128(ptr noundef %60, ptr noundef %61)
  %62 = load ptr, ptr %15, align 8
  call void @tcg_temp_free_i64(ptr noundef %62)
  %63 = load ptr, ptr %16, align 8
  call void @tcg_temp_free_i64(ptr noundef %63)
  %64 = load ptr, ptr %14, align 8
  call void @tcg_temp_free_i128(ptr noundef %64)
  %65 = load ptr, ptr %13, align 8
  call void @tcg_temp_free_i128(ptr noundef %65)
  call void @llvm.lifetime.end.p0(i64 8, ptr %17) #7
  call void @llvm.lifetime.end.p0(i64 8, ptr %16) #7
  call void @llvm.lifetime.end.p0(i64 8, ptr %15) #7
  call void @llvm.lifetime.end.p0(i64 8, ptr %14) #7
  call void @llvm.lifetime.end.p0(i64 8, ptr %13) #7
  ret void
}