; Function Attrs: nounwind sspstrong uwtable
define internal fastcc void @tcg_gen_nonatomic_cmpxchg_i128_int(ptr noundef %0, ptr noundef %1, ptr noundef %2, ptr noundef %3, i64 noundef %4, i32 noundef %5) unnamed_addr #0 {
  %7 = tail call ptr @tcg_temp_ebb_new_i128() #6
  %8 = tail call ptr @tcg_temp_ebb_new_i128() #6
  %9 = tail call ptr @tcg_temp_ebb_new_i64() #6
  %10 = tail call ptr @tcg_temp_ebb_new_i64() #6
  %11 = tail call ptr @tcg_constant_i64(i64 noundef 0) #6
  tail call fastcc void @tcg_gen_qemu_ld_i128_int(ptr noundef %7, ptr noundef %1, i64 noundef %4, i32 noundef %5)
  tail call void @tcg_gen_xor_i64(ptr noundef %9, ptr noundef %7, ptr noundef %2) #6
  %12 = tail call align 8 ptr @llvm.threadlocal.address.p0(ptr align 8 @tcg_ctx)
  %13 = load ptr, ptr %12, align 8
  %14 = ptrtoint ptr %7 to i64
  %15 = getelementptr inbounds nuw i8, ptr %13, i64 %14
  %16 = getelementptr inbounds nuw i8, ptr %15, i64 56
  %17 = ptrtoint ptr %16 to i64
  %18 = ptrtoint ptr %13 to i64
  %19 = sub i64 %17, %18
  %20 = inttoptr i64 %19 to ptr
  %21 = ptrtoint ptr %2 to i64
  %22 = getelementptr inbounds nuw i8, ptr %13, i64 %21
  %23 = getelementptr inbounds nuw i8, ptr %22, i64 56
  %24 = ptrtoint ptr %23 to i64
  %25 = sub i64 %24, %18
  %26 = inttoptr i64 %25 to ptr
  tail call void @tcg_gen_xor_i64(ptr noundef %10, ptr noundef %20, ptr noundef %26) #6
  tail call void @tcg_gen_or_i64(ptr noundef %9, ptr noundef %9, ptr noundef %10) #6
  tail call void @tcg_gen_movcond_i64(i32 noundef 8, ptr noundef %8, ptr noundef %9, ptr noundef %11, ptr noundef %3, ptr noundef %7) #6
  %27 = load ptr, ptr %12, align 8
  %28 = ptrtoint ptr %8 to i64
  %29 = getelementptr inbounds nuw i8, ptr %27, i64 %28
  %30 = getelementptr inbounds nuw i8, ptr %29, i64 56
  %31 = ptrtoint ptr %30 to i64
  %32 = ptrtoint ptr %27 to i64
  %33 = sub i64 %31, %32
  %34 = inttoptr i64 %33 to ptr
  %35 = ptrtoint ptr %3 to i64
  %36 = getelementptr inbounds nuw i8, ptr %27, i64 %35
  %37 = getelementptr inbounds nuw i8, ptr %36, i64 56
  %38 = ptrtoint ptr %37 to i64
  %39 = sub i64 %38, %32
  %40 = inttoptr i64 %39 to ptr
  %41 = getelementptr inbounds nuw i8, ptr %27, i64 %14
  %42 = getelementptr inbounds nuw i8, ptr %41, i64 56
  %43 = ptrtoint ptr %42 to i64
  %44 = sub i64 %43, %32
  %45 = inttoptr i64 %44 to ptr
  tail call void @tcg_gen_movcond_i64(i32 noundef 8, ptr noundef %34, ptr noundef %9, ptr noundef %11, ptr noundef %40, ptr noundef %45) #6
  tail call fastcc void @tcg_gen_qemu_st_i128_int(ptr noundef %8, ptr noundef %1, i64 noundef %4, i32 noundef %5)
  tail call void @tcg_gen_mov_i128(ptr noundef %0, ptr noundef %7) #6
  tail call void @tcg_temp_free_i64(ptr noundef %9) #6
  tail call void @tcg_temp_free_i64(ptr noundef %10) #6
  tail call void @tcg_temp_free_i128(ptr noundef %8) #6
  tail call void @tcg_temp_free_i128(ptr noundef %7) #6
  ret void
}